ccopy_reg
_reconstructor
p0
(cpandas.core.frame
DataFrame
p1
c__builtin__
object
p2
Ntp3
Rp4
(dp5
S'_metadata'
p6
(lp7
sS'_typ'
p8
S'dataframe'
p9
sS'_data'
p10
g0
(cpandas.core.internals
BlockManager
p11
g2
Ntp12
Rp13
((lp14
cpandas.indexes.base
_new_Index
p15
(cpandas.indexes.base
Index
p16
(dp17
S'data'
p18
cnumpy.core.multiarray
_reconstruct
p19
(cnumpy
ndarray
p20
(I0
tp21
S'b'
p22
tp23
Rp24
(I1
(I140
tp25
cnumpy
dtype
p26
(S'O8'
p27
I0
I1
tp28
Rp29
(I3
S'|'
p30
NNNI-1
I-1
I63
tp31
bI00
(lp32
S'ALLEN PHILLIP K'
p33
aS'BADUM JAMES P'
p34
aS'BANNANTINE JAMES M'
p35
aS'BAXTER JOHN C'
p36
aS'BAY FRANKLIN R'
p37
aS'BAZELIDES PHILIP J'
p38
aS'BECK SALLY W'
p39
aS'BELDEN TIMOTHY N'
p40
aS'BELFER ROBERT'
p41
aS'BERBERIAN DAVID'
p42
aS'BERGSIEKER RICHARD P'
p43
aS'BHATNAGAR SANJAY'
p44
aS'BIBI PHILIPPE A'
p45
aS'BLACHMAN JEREMY M'
p46
aS'BLAKE JR. NORMAN P'
p47
aS'BOWEN JR RAYMOND M'
p48
aS'BROWN MICHAEL'
p49
aS'BUCHANAN HAROLD G'
p50
aS'BUTTS ROBERT H'
p51
aS'BUY RICHARD B'
p52
aS'CALGER CHRISTOPHER F'
p53
aS'CARTER REBECCA C'
p54
aS'CAUSEY RICHARD A'
p55
aS'CHAN RONNIE'
p56
aS'CHRISTODOULOU DIOMEDES'
p57
aS'CLINE KENNETH W'
p58
aS'COLWELL WESLEY'
p59
aS'CORDES WILLIAM R'
p60
aS'COX DAVID'
p61
aS'CUMBERLAND MICHAEL S'
p62
aS'DEFFNER JOSEPH M'
p63
aS'DELAINEY DAVID W'
p64
aS'DERRICK JR. JAMES V'
p65
aS'DETMERING TIMOTHY J'
p66
aS'DIETRICH JANET R'
p67
aS'DIMICHELE RICHARD G'
p68
aS'DODSON KEITH'
p69
aS'DONAHUE JR JEFFREY M'
p70
aS'DUNCAN JOHN H'
p71
aS'DURAN WILLIAM D'
p72
aS'ECHOLS JOHN B'
p73
aS'ELLIOTT STEVEN'
p74
aS'FALLON JAMES B'
p75
aS'FASTOW ANDREW S'
p76
aS'FITZGERALD JAY L'
p77
aS'FOWLER PEGGY'
p78
aS'FOY JOE'
p79
aS'FREVERT MARK A'
p80
aS'FUGH JOHN L'
p81
aS'GAHN ROBERT S'
p82
aS'GARLAND C KEVIN'
p83
aS'GATHMANN WILLIAM D'
p84
aS'GIBBS DANA R'
p85
aS'GILLIS JOHN'
p86
aS'GLISAN JR BEN F'
p87
aS'GOLD JOSEPH'
p88
aS'GRAY RODNEY'
p89
aS'HAEDICKE MARK E'
p90
aS'HANNON KEVIN P'
p91
aS'HAUG DAVID L'
p92
aS'HAYES ROBERT E'
p93
aS'HAYSLETT RODERICK J'
p94
aS'HERMANN ROBERT J'
p95
aS'HICKERSON GARY J'
p96
aS'HIRKO JOSEPH'
p97
aS'HORTON STANLEY C'
p98
aS'HUGHES JAMES A'
p99
aS'HUMPHREY GENE E'
p100
aS'IZZO LAWRENCE L'
p101
aS'JACKSON CHARLENE R'
p102
aS'JAEDICKE ROBERT'
p103
aS'KAMINSKI WINCENTY J'
p104
aS'KEAN STEVEN J'
p105
aS'KISHKILL JOSEPH G'
p106
aS'KITCHEN LOUISE'
p107
aS'KOENIG MARK E'
p108
aS'KOPPER MICHAEL J'
p109
aS'LAVORATO JOHN J'
p110
aS'LAY KENNETH L'
p111
aS'LEFF DANIEL P'
p112
aS'LEMAISTRE CHARLES'
p113
aS'LEWIS RICHARD'
p114
aS'LINDHOLM TOD A'
p115
aS'LOWRY CHARLES P'
p116
aS'MARTIN AMANDA K'
p117
aS'MCCARTY DANNY J'
p118
aS'MCCLELLAN GEORGE'
p119
aS'MCCONNELL MICHAEL S'
p120
aS'MCDONALD REBECCA'
p121
aS'MCMAHON JEFFREY'
p122
aS'MENDELSOHN JOHN'
p123
aS'METTS MARK'
p124
aS'MEYER JEROME J'
p125
aS'MEYER ROCKFORD G'
p126
aS'MORAN MICHAEL P'
p127
aS'MORDAUNT KRISTINA M'
p128
aS'MULLER MARK S'
p129
aS'MURRAY JULIA H'
p130
aS'NOLES JAMES L'
p131
aS'OLSON CINDY K'
p132
aS'OVERDYKE JR JERE C'
p133
aS'PAI LOU L'
p134
aS'PEREIRA PAULO V. FERRAZ'
p135
aS'PICKERING MARK R'
p136
aS'PIPER GREGORY F'
p137
aS'PIRO JIM'
p138
aS'POWERS WILLIAM'
p139
aS'PRENTICE JAMES'
p140
aS'REDMOND BRIAN L'
p141
aS'REYNOLDS LAWRENCE'
p142
aS'RICE KENNETH D'
p143
aS'RIEKER PAULA H'
p144
aS'SAVAGE FRANK'
p145
aS'SCRIMSHAW MATTHEW'
p146
aS'SHANKMAN JEFFREY A'
p147
aS'SHAPIRO RICHARD S'
p148
aS'SHARP VICTORIA T'
p149
aS'SHELBY REX'
p150
aS'SHERRICK JEFFREY B'
p151
aS'SHERRIFF JOHN R'
p152
aS'SKILLING JEFFREY K'
p153
aS'STABLER FRANK'
p154
aS'SULLIVAN-SHAKLOVITZ COLLEEN'
p155
aS'SUNDE MARTIN'
p156
aS'TAYLOR MITCHELL S'
p157
aS'THORN TERENCE H'
p158
aS'TILNEY ELIZABETH A'
p159
aS'UMANOFF ADAM S'
p160
aS'URQUHART JOHN A'
p161
aS'WAKEHAM JOHN'
p162
aS'WALLS JR ROBERT H'
p163
aS'WALTERS GARETH W'
p164
aS'WASAFF GEORGE'
p165
aS'WESTFAHL RICHARD K'
p166
aS'WHALLEY LAWRENCE G'
p167
aS'WHITE JR THOMAS E'
p168
aS'WINOKUR JR. HERBERT S'
p169
aS'WODRASKA JOHN'
p170
aS'YEAGER F SCOTT'
p171
aS'YEAP SOON'
p172
atp173
bsS'name'
p174
Nstp175
Rp176
ag15
(g16
(dp177
g18
g19
(g20
(I0
tp178
g22
tp179
Rp180
(I1
(I24
tp181
g29
I00
(lp182
S'bonus'
p183
aS'deferral_payments'
p184
aS'deferred_income'
p185
aS'director_fees'
p186
aS'email_address'
p187
aS'exercised_stock_options'
p188
aS'expenses'
p189
aS'from_messages'
p190
aS'from_poi_to_this_person'
p191
aS'from_this_person_to_poi'
p192
aS'loan_advances'
p193
aS'long_term_incentive'
p194
aS'other'
p195
aS'poi'
p196
aS'restricted_stock'
p197
aS'restricted_stock_deferred'
p198
aS'salary'
p199
aS'shared_receipt_with_poi'
p200
aS'to_messages'
p201
aS'total_payments'
p202
aS'total_stock_value'
p203
aS'poi_inbox_percentage'
p204
aS'poi_outbox_percentage'
p205
aS'poi_shared_receipt_percentage'
p206
atp207
bsg174
Nstp208
Rp209
a(lp210
g19
(g20
(I0
tp211
g22
tp212
Rp213
(I1
(I140
I24
tp214
g29
I01
(lp215
F4175000.0
aF2869717.0
aF-3081055.0
aF0.0
aS'phillip.allen@enron.com'
p216
aF1729541.0
aF13868.0
aF2195.0
aF47.0
aF65.0
aF0.0
aF304805.0
aF152.0
aI00
aF126027.0
aF-126027.0
aF201955.0
aF1407.0
aF2902.0
aF4484442.0
aF1729541.0
aF0.016195727084769126
aF0.029612756264236904
aF0.4848380427291523
aF0.0
aF178980.0
aF0.0
aF0.0
aI0
aF257817.0
aF3486.0
aF0.0
aF0.0
aF0.0
aF0.0
aF0.0
aF0.0
aI00
aF0.0
aF0.0
aF0.0
aF0.0
aF0.0
aF182466.0
aF257817.0
aF0.0
aF0.0
aF0.0
aF0.0
aF0.0
aF-5104.0
aF0.0
aS'james.bannantine@enron.com'
p217
aF4046157.0
aF56301.0
aF29.0
aF39.0
aF0.0
aF0.0
aF0.0
aF864523.0
aI00
aF1757552.0
aF-560222.0
aF477.0
aF465.0
aF566.0
aF916197.0
aF5243487.0
aF0.06890459363957598
aF0.0
aF0.8215547703180212
aF1200000.0
aF1295738.0
aF-1386055.0
aF0.0
aI0
aF6680544.0
aF11200.0
aF0.0
aF0.0
aF0.0
aF0.0
aF1586055.0
aF2660303.0
aI00
aF3942714.0
aF0.0
aF267102.0
aF0.0
aF0.0
aF5634343.0
aF10623258.0
aF0.0
aF0.0
aF0.0
aF400000.0
aF260455.0
aF-201641.0
aF0.0
aS'frank.bay@enron.com'
p218
aF0.0
aF129142.0
aF0.0
aF0.0
aF0.0
aF0.0
aF0.0
aF69.0
aI00
aF145796.0
aF-82782.0
aF239671.0
aF0.0
aF0.0
aF827696.0
aF63014.0
aF0.0
aF0.0
aF0.0
aF0.0
aF684694.0
aF0.0
aF0.0
aI0
aF1599641.0
aF0.0
aF0.0
aF0.0
aF0.0
aF0.0
aF93750.0
aF874.0
aI00
aF0.0
aF0.0
aF80818.0
aF0.0
aF0.0
aF860136.0
aF1599641.0
aF0.0
aF0.0
aF0.0
aF700000.0
aF0.0
aF0.0
aF0.0
aS'sally.beck@enron.com'
p219
aF0.0
aF37172.0
aF4343.0
aF144.0
aF386.0
aF0.0
aF0.0
aF566.0
aI00
aF126027.0
aF0.0
aF231330.0
aF2639.0
aF7315.0
aF969068.0
aF126027.0
aF0.01968557758031442
aF0.08887865530739121
aF0.36076555023923446
aF5249999.0
aF2144013.0
aF-2334434.0
aF0.0
aS'tim.belden@enron.com'
p220
aF953136.0
aF17355.0
aF484.0
aF228.0
aF108.0
aF0.0
aF0.0
aF210698.0
aI01
aF157569.0
aF0.0
aF213999.0
aF5521.0
aF7991.0
aF5501630.0
aF1110705.0
aF0.028532098610937303
aF0.2231404958677686
aF0.6909022650481792
aF0.0
aF-102500.0
aF0.0
aF3285.0
aI0
aF3285.0
aF0.0
aF0.0
aF0.0
aF0.0
aF0.0
aF0.0
aF0.0
aI00
aF0.0
aF44093.0
aF0.0
aF0.0
aF0.0
aF102500.0
aF-44093.0
aF0.0
aF0.0
aF0.0
aF0.0
aF0.0
aF0.0
aF0.0
aS'david.berberian@enron.com'
p221
aF1624396.0
aF11892.0
aF0.0
aF0.0
aF0.0
aF0.0
aF0.0
aF0.0
aI00
aF869220.0
aF0.0
aF216582.0
aF0.0
aF0.0
aF228474.0
aF2493616.0
aF0.0
aF0.0
aF0.0
aF250000.0
aF0.0
aF-485813.0
aF0.0
aS'rick.bergsieker@enron.com'
p222
aF0.0
aF59175.0
aF59.0
aF4.0
aF0.0
aF0.0
aF180250.0
aF427316.0
aI00
aF659249.0
aF0.0
aF187922.0
aF233.0
aF383.0
aF618850.0
aF659249.0
aF0.010443864229765013
aF0.0
aF0.608355091383812
aF0.0
aF0.0
aF0.0
aF137864.0
aS'sanjay.bhatnagar@enron.com'
p223
aF2604490.0
aF0.0
aF29.0
aF0.0
aF1.0
aF0.0
aF0.0
aF137864.0
aI00
aF-2604490.0
aF15456290.0
aF0.0
aF463.0
aF523.0
aF15456290.0
aF0.0
aF0.0
aF0.034482758620689655
aF0.8852772466539197
aF1000000.0
aF0.0
aF0.0
aF0.0
aS'philippe.bibi@enron.com'
p224
aF1465734.0
aF38559.0
aF40.0
aF23.0
aF8.0
aF0.0
aF369721.0
aF425688.0
aI00
aF378082.0
aF0.0
aF213625.0
aF1336.0
aF1607.0
aF2047593.0
aF1843816.0
aF0.01431238332296204
aF0.2
aF0.8313627878033603
aF850000.0
aF0.0
aF0.0
aF0.0
aS'jeremy.blachman@enron.com'
p225
aF765313.0
aF84208.0
aF14.0
aF25.0
aF2.0
aF0.0
aF831809.0
aF272.0
aI00
aF189041.0
aF0.0
aF248546.0
aF2326.0
aF2475.0
aF2014835.0
aF954354.0
aF0.010101010101010102
aF0.14285714285714285
aF0.9397979797979797
aF0.0
aF0.0
aF-113784.0
aF113784.0
aI0
aF0.0
aF1279.0
aF0.0
aF0.0
aF0.0
aF0.0
aF0.0
aF0.0
aI00
aF0.0
aF0.0
aF0.0
aF0.0
aF0.0
aF1279.0
aF0.0
aF0.0
aF0.0
aF0.0
aF1350000.0
aF0.0
aF-833.0
aF0.0
aS'raymond.bowen@enron.com'
p226
aF0.0
aF65907.0
aF27.0
aF140.0
aF15.0
aF0.0
aF974293.0
aF1621.0
aI01
aF252055.0
aF0.0
aF278601.0
aF1593.0
aF1858.0
aF2669589.0
aF252055.0
aF0.07534983853606028
aF0.5555555555555556
aF0.8573735199138859
aF0.0
aF0.0
aF0.0
aF0.0
aS'michael.brown@enron.com'
p227
aF0.0
aF49288.0
aF41.0
aF13.0
aF1.0
aF0.0
aF0.0
aF0.0
aI00
aF0.0
aF0.0
aF0.0
aF761.0
aF1486.0
aF49288.0
aF0.0
aF0.008748317631224764
aF0.024390243902439025
aF0.5121130551816958
aF500000.0
aF0.0
aF0.0
aF0.0
aS'john.buchanan@enron.com'
p228
aF825464.0
aF600.0
aF125.0
aF0.0
aF0.0
aF0.0
aF304805.0
aF1215.0
aI00
aF189041.0
aF0.0
aF248017.0
aF23.0
aF1088.0
aF1054637.0
aF1014505.0
aF0.0
aF0.0
aF0.021139705882352942
aF750000.0
aF0.0
aF-75000.0
aF0.0
aS'bob.butts@enron.com'
p229
aF0.0
aF9410.0
aF0.0
aF0.0
aF0.0
aF0.0
aF175000.0
aF150656.0
aI00
aF417619.0
aF0.0
aF261516.0
aF0.0
aF0.0
aF1271582.0
aF417619.0
aF0.0
aF0.0
aF0.0
aF900000.0
aF649584.0
aF-694862.0
aF0.0
aS'rick.buy@enron.com'
p230
aF2542813.0
aF0.0
aF1053.0
aF156.0
aF71.0
aF0.0
aF769862.0
aF400572.0
aI00
aF901657.0
aF0.0
aF330546.0
aF2333.0
aF3523.0
aF2355702.0
aF3444470.0
aF0.04428044280442804
aF0.06742640075973409
aF0.6622196991200682
aF1250000.0
aF0.0
aF-262500.0
aF0.0
aS'christopher.calger@enron.com'
p231
aF0.0
aF35818.0
aF144.0
aF199.0
aF25.0
aF0.0
aF375304.0
aF486.0
aI01
aF126027.0
aF0.0
aF240189.0
aF2188.0
aF2598.0
aF1639297.0
aF126027.0
aF0.07659738260200154
aF0.1736111111111111
aF0.8421862971516552
aF300000.0
aF0.0
aF-159792.0
aF0.0
aS'rebecca.carter@enron.com'
p232
aF0.0
aF0.0
aF15.0
aF29.0
aF7.0
aF0.0
aF75000.0
aF540.0
aI00
aF307301.0
aF-307301.0
aF261809.0
aF196.0
aF312.0
aF477557.0
aF0.0
aF0.09294871794871795
aF0.4666666666666667
aF0.6282051282051282
aF1000000.0
aF0.0
aF-235000.0
aF0.0
aS'richard.causey@enron.com'
p233
aF0.0
aF30674.0
aF49.0
aF58.0
aF12.0
aF0.0
aF350000.0
aF307895.0
aI01
aF2502063.0
aF0.0
aF415189.0
aF1585.0
aF1892.0
aF1868758.0
aF2502063.0
aF0.0306553911205074
aF0.24489795918367346
aF0.837737843551797
aF0.0
aF0.0
aF-98784.0
aF98784.0
aI0
aF0.0
aF0.0
aF0.0
aF0.0
aF0.0
aF0.0
aF0.0
aF0.0
aI00
aF32460.0
aF-32460.0
aF0.0
aF0.0
aF0.0
aF0.0
aF0.0
aF0.0
aF0.0
aF0.0
aF0.0
aF0.0
aF0.0
aF0.0
aS'diomedes.christodoulou@enron.com'
p234
aF5127155.0
aF0.0
aF0.0
aF0.0
aF0.0
aF0.0
aF0.0
aF0.0
aI00
aF950730.0
aF0.0
aF0.0
aF0.0
aF0.0
aF0.0
aF6077885.0
aF0.0
aF0.0
aF0.0
aF0.0
aF0.0
aF0.0
aF0.0
aI0
aF0.0
aF0.0
aF0.0
aF0.0
aF0.0
aF0.0
aF0.0
aF0.0
aI00
aF662086.0
aF-472568.0
aF0.0
aF0.0
aF0.0
aF0.0
aF189518.0
aF0.0
aF0.0
aF0.0
aF1200000.0
aF27610.0
aF-144062.0
aF0.0
aS'wes.colwell@enron.com'
p235
aF0.0
aF16514.0
aF40.0
aF240.0
aF11.0
aF0.0
aF0.0
aF101740.0
aI01
aF698242.0
aF0.0
aF288542.0
aF1132.0
aF1758.0
aF1490344.0
aF698242.0
aF0.13651877133105803
aF0.275
aF0.6439135381114903
aF0.0
aF0.0
aF0.0
aF0.0
aS'bill.cordes@enron.com'
p236
aF651850.0
aF0.0
aF12.0
aF10.0
aF0.0
aF0.0
aF0.0
aF0.0
aI00
aF386335.0
aF0.0
aF0.0
aF58.0
aF764.0
aF0.0
aF1038185.0
aF0.013089005235602094
aF0.0
aF0.07591623036649214
aF800000.0
aF0.0
aF-41250.0
aF0.0
aS'chip.cox@enron.com'
p237
aF117551.0
aF27861.0
aF33.0
aF0.0
aF4.0
aF0.0
aF0.0
aF494.0
aI00
aF378082.0
aF0.0
aF314288.0
aF71.0
aF102.0
aF1101393.0
aF495633.0
aF0.0
aF0.12121212121212122
aF0.696078431372549
aF325000.0
aF0.0
aF0.0
aF0.0
aI0
aF0.0
aF22344.0
aF0.0
aF0.0
aF0.0
aF0.0
aF275000.0
aF713.0
aI00
aF207940.0
aF0.0
aF184899.0
aF0.0
aF0.0
aF807956.0
aF207940.0
aF0.0
aF0.0
aF0.0
aF600000.0
aF0.0
aF0.0
aF0.0
aS'joseph.deffner@enron.com'
p238
aF17378.0
aF41626.0
aF74.0
aF115.0
aF4.0
aF0.0
aF335349.0
aF25553.0
aI00
aF141833.0
aF0.0
aF206121.0
aF552.0
aF714.0
aF1208649.0
aF159211.0
aF0.16106442577030813
aF0.05405405405405406
aF0.773109243697479
aF3000000.0
aF0.0
aF0.0
aF0.0
aS'david.delainey@enron.com'
p239
aF2291113.0
aF86174.0
aF3069.0
aF66.0
aF609.0
aF0.0
aF1294981.0
aF1661.0
aI01
aF1323148.0
aF0.0
aF365163.0
aF2097.0
aF3093.0
aF4747979.0
aF3614261.0
aF0.02133850630455868
aF0.198435972629521
aF0.6779825412221144
aF800000.0
aF0.0
aF-1284000.0
aF0.0
aS'james.derrick@enron.com'
p240
aF8831913.0
aF51124.0
aF909.0
aF64.0
aF20.0
aF0.0
aF484000.0
aF7482.0
aI00
aF1787380.0
aF-1787380.0
aF492375.0
aF1401.0
aF2181.0
aF550981.0
aF8831913.0
aF0.029344337459880788
aF0.022002200220022004
aF0.6423658872077029
aF425000.0
aF875307.0
aF-775241.0
aF0.0
aS'timothy.detmering@enron.com'
p241
aF2027865.0
aF52255.0
aF0.0
aF0.0
aF0.0
aF0.0
aF415657.0
aF1105.0
aI00
aF315068.0
aF-315068.0
aF210500.0
aF0.0
aF0.0
aF1204583.0
aF2027865.0
aF0.0
aF0.0
aF0.0
aF600000.0
aF0.0
aF0.0
aF0.0
aS'janet.dietrich@enron.com'
p242
aF1550019.0
aF3475.0
aF63.0
aF305.0
aF14.0
aF0.0
aF556416.0
aF473.0
aI00
aF315068.0
aF0.0
aF250100.0
aF1902.0
aF2572.0
aF1410464.0
aF1865087.0
aF0.11858475894245724
aF0.2222222222222222
aF0.73950233281493
aF1000000.0
aF0.0
aF0.0
aF0.0
aS'richard.dimichele@enron.com'
p243
aF8191755.0
aF35812.0
aF0.0
aF0.0
aF0.0
aF0.0
aF694862.0
aF374689.0
aI00
aF126027.0
aF0.0
aF262788.0
aF0.0
aF0.0
aF2368151.0
aF8317782.0
aF0.0
aF0.0
aF0.0
aF70000.0
aF0.0
aF0.0
aF0.0
aS'keith.dodson@enron.com'
p244
aF0.0
aF28164.0
aF14.0
aF10.0
aF3.0
aF0.0
aF0.0
aF774.0
aI00
aF0.0
aF0.0
aF221003.0
aF114.0
aF176.0
aF319941.0
aF0.0
aF0.056818181818181816
aF0.21428571428571427
aF0.6477272727272727
aF800000.0
aF0.0
aF-300000.0
aF0.0
aS'jeff.donahue@enron.com'
p245
aF765920.0
aF96268.0
aF22.0
aF188.0
aF11.0
aF0.0
aF0.0
aF891.0
aI00
aF315068.0
aF0.0
aF278601.0
aF772.0
aF865.0
aF875760.0
aF1080988.0
aF0.21734104046242775
aF0.5
aF0.892485549132948
aF0.0
aF0.0
aF-25000.0
aF102492.0
aI0
aF371750.0
aF0.0
aF0.0
aF0.0
aF0.0
aF0.0
aF0.0
aF0.0
aI00
aF0.0
aF0.0
aF0.0
aF0.0
aF0.0
aF77492.0
aF371750.0
aF0.0
aF0.0
aF0.0
aF750000.0
aF0.0
aF0.0
aF0.0
aS'w.duran@enron.com'
p246
aF1451869.0
aF25785.0
aF12.0
aF106.0
aF3.0
aF0.0
aF1105218.0
aF1568.0
aI00
aF189041.0
aF0.0
aF210692.0
aF599.0
aF904.0
aF2093263.0
aF1640910.0
aF0.1172566371681416
aF0.25
aF0.6626106194690266
aF200000.0
aF0.0
aF0.0
aF0.0
aS'john.echols@enron.com'
p247
aF601438.0
aF21530.0
aF0.0
aF0.0
aF0.0
aF0.0
aF2234774.0
aF53775.0
aI00
aF407503.0
aF0.0
aF182245.0
aF0.0
aF0.0
aF2692324.0
aF1008941.0
aF0.0
aF0.0
aF0.0
aF350000.0
aF0.0
aF-400729.0
aF0.0
aS'steven.elliott@enron.com'
p248
aF4890344.0
aF78552.0
aF0.0
aF0.0
aF0.0
aF0.0
aF0.0
aF12961.0
aI00
aF1788391.0
aF0.0
aF170941.0
aF0.0
aF0.0
aF211725.0
aF6678735.0
aF0.0
aF0.0
aF0.0
aF2500000.0
aF0.0
aF0.0
aF0.0
aS'jim.fallon@enron.com'
p249
aF940257.0
aF95924.0
aF75.0
aF42.0
aF37.0
aF0.0
aF374347.0
aF401481.0
aI00
aF1392142.0
aF0.0
aF304588.0
aF1604.0
aF1755.0
aF3676340.0
aF2332399.0
aF0.023931623931623933
aF0.49333333333333335
aF0.913960113960114
aF1300000.0
aF0.0
aF-1386055.0
aF0.0
aS'andrew.fastow@enron.com'
p250
aF0.0
aF55921.0
aF0.0
aF0.0
aF0.0
aF0.0
aF1736055.0
aF277464.0
aI01
aF1794412.0
aF0.0
aF440698.0
aF0.0
aF0.0
aF2424083.0
aF1794412.0
aF0.0
aF0.0
aF0.0
aF350000.0
aF0.0
aF0.0
aF0.0
aS'jay.fitzgerald@enron.com'
p251
aF664461.0
aF23870.0
aF16.0
aF1.0
aF8.0
aF0.0
aF556416.0
aF285414.0
aI00
aF956775.0
aF0.0
aF199157.0
aF723.0
aF936.0
aF1414857.0
aF1621236.0
aF0.0010683760683760685
aF0.5
aF0.7724358974358975
aF0.0
aF0.0
aF0.0
aF0.0
aS'kulvinder.fowler@enron.com'
p252
aF1324578.0
aF0.0
aF36.0
aF0.0
aF0.0
aF0.0
aF0.0
aF0.0
aI00
aF560170.0
aF0.0
aF0.0
aF10.0
aF517.0
aF0.0
aF1884748.0
aF0.0
aF0.0
aF0.019342359767891684
aF0.0
aF181755.0
aF0.0
aF0.0
aS'tracy.foy@enron.com'
p253
aF343434.0
aF0.0
aF13.0
aF0.0
aF0.0
aF0.0
aF0.0
aF0.0
aI00
aF0.0
aF0.0
aF0.0
aF2.0
aF57.0
aF181755.0
aF343434.0
aF0.0
aF0.0
aF0.03508771929824561
aF2000000.0
aF6426990.0
aF-3367011.0
aF0.0
aS'mark.frevert@enron.com'
p254
aF10433518.0
aF86987.0
aF21.0
aF242.0
aF6.0
aF2000000.0
aF1617011.0
aF7427621.0
aI00
aF4188667.0
aF0.0
aF1060932.0
aF2979.0
aF3275.0
aF17252530.0
aF14622185.0
aF0.07389312977099237
aF0.2857142857142857
aF0.909618320610687
aF0.0
aF50591.0
aF0.0
aF0.0
aI0
aF176378.0
aF0.0
aF0.0
aF0.0
aF0.0
aF0.0
aF0.0
aF0.0
aI00
aF0.0
aF0.0
aF0.0
aF0.0
aF0.0
aF50591.0
aF176378.0
aF0.0
aF0.0
aF0.0
aF509870.0
aF73122.0
aF-1042.0
aF0.0
aI0
aF83237.0
aF50080.0
aF0.0
aF0.0
aF0.0
aF0.0
aF0.0
aF76547.0
aI00
aF235370.0
aF0.0
aF192008.0
aF0.0
aF0.0
aF900585.0
aF318607.0
aF0.0
aF0.0
aF0.0
aF850000.0
aF0.0
aF0.0
aF0.0
aS'kevin.garland@enron.com'
p255
aF636246.0
aF48405.0
aF44.0
aF10.0
aF27.0
aF0.0
aF375304.0
aF60814.0
aI00
aF259907.0
aF0.0
aF231946.0
aF178.0
aF209.0
aF1566469.0
aF896153.0
aF0.04784688995215311
aF0.6136363636363636
aF0.8516746411483254
aF0.0
aF0.0
aF0.0
aF0.0
aI0
aF1753766.0
aF0.0
aF0.0
aF0.0
aF0.0
aF0.0
aF0.0
aF0.0
aI00
aF264013.0
aF-72419.0
aF0.0
aF0.0
aF0.0
aF0.0
aF1945360.0
aF0.0
aF0.0
aF0.0
aF0.0
aF504610.0
aF0.0
aF0.0
aS'dana.gibbs@enron.com'
p256
aF2218275.0
aF0.0
aF12.0
aF0.0
aF0.0
aF0.0
aF461912.0
aF0.0
aI00
aF0.0
aF0.0
aF0.0
aF23.0
aF169.0
aF966522.0
aF2218275.0
aF0.0
aF0.0
aF0.13609467455621302
aF0.0
aF0.0
aF0.0
aF0.0
aI0
aF9803.0
aF0.0
aF0.0
aF0.0
aF0.0
aF0.0
aF0.0
aF0.0
aI00
aF75838.0
aF0.0
aF0.0
aF0.0
aF0.0
aF0.0
aF85641.0
aF0.0
aF0.0
aF0.0
aF600000.0
aF0.0
aF0.0
aF0.0
aS'ben.glisan@enron.com'
p257
aF384728.0
aF125978.0
aF16.0
aF52.0
aF6.0
aF0.0
aF71023.0
aF200308.0
aI01
aF393818.0
aF0.0
aF274975.0
aF874.0
aF873.0
aF1272284.0
aF778546.0
aF0.05956471935853379
aF0.375
aF1.0011454753722795
aF750000.0
aF0.0
aF0.0
aF0.0
aS'joe.gold@enron.com'
p258
aF436515.0
aF0.0
aF0.0
aF0.0
aF0.0
aF0.0
aF304805.0
aF819288.0
aI00
aF441096.0
aF0.0
aF272880.0
aF0.0
aF0.0
aF2146973.0
aF877611.0
aF0.0
aF0.0
aF0.0
aF0.0
aF93585.0
aF0.0
aF0.0
aI0
aF0.0
aF0.0
aF0.0
aF0.0
aF0.0
aF0.0
aF365625.0
aF680833.0
aI00
aF0.0
aF0.0
aF6615.0
aF0.0
aF0.0
aF1146658.0
aF0.0
aF0.0
aF0.0
aF0.0
aF1150000.0
aF2157527.0
aF-934484.0
aF0.0
aS'mark.haedicke@enron.com'
p259
aF608750.0
aF76169.0
aF1941.0
aF180.0
aF61.0
aF0.0
aF983346.0
aF52382.0
aI00
aF524169.0
aF-329825.0
aF374125.0
aF1847.0
aF4009.0
aF3859065.0
aF803094.0
aF0.04489897730107259
aF0.03142709943328181
aF0.4607133948615615
aF1500000.0
aF0.0
aF-3117011.0
aF0.0
aS'kevin.hannon@enron.com'
p260
aF5538001.0
aF34039.0
aF32.0
aF32.0
aF21.0
aF0.0
aF1617011.0
aF11350.0
aI01
aF853064.0
aF0.0
aF243293.0
aF1035.0
aF1045.0
aF288682.0
aF6391065.0
aF0.03062200956937799
aF0.65625
aF0.9904306220095693
aF0.0
aF0.0
aF0.0
aF0.0
aS'david.haug@enron.com'
p261
aF0.0
aF475.0
aF19.0
aF4.0
aF7.0
aF0.0
aF0.0
aF0.0
aI00
aF2217299.0
aF0.0
aF0.0
aF471.0
aF573.0
aF475.0
aF2217299.0
aF0.006980802792321117
aF0.3684210526315789
aF0.8219895287958116
aF0.0
aF7961.0
aF0.0
aF0.0
aS'robert.hayes@enron.com'
p262
aF0.0
aF0.0
aF12.0
aF16.0
aF0.0
aF0.0
aF0.0
aF0.0
aI00
aF151418.0
aF0.0
aF0.0
aF50.0
aF504.0
aF7961.0
aF151418.0
aF0.031746031746031744
aF0.0
aF0.0992063492063492
aF0.0
aF0.0
aF0.0
aF0.0
aS'rod.hayslett@enron.com'
p263
aF0.0
aF0.0
aF1061.0
aF35.0
aF38.0
aF0.0
aF0.0
aF0.0
aI00
aF346663.0
aF0.0
aF0.0
aF571.0
aF2649.0
aF0.0
aF346663.0
aF0.01321253303133258
aF0.03581526861451461
aF0.21555303888259722
aF700000.0
aF0.0
aF-280000.0
aF0.0
aS'robert.hermann@enron.com'
p264
aF187500.0
aF48357.0
aF0.0
aF0.0
aF0.0
aF0.0
aF150000.0
aF416441.0
aI00
aF480632.0
aF0.0
aF262663.0
aF0.0
aF0.0
aF1297461.0
aF668132.0
aF0.0
aF0.0
aF0.0
aF1700000.0
aF0.0
aF0.0
aF0.0
aS'gary.hickerson@enron.com'
p265
aF0.0
aF98849.0
aF27.0
aF40.0
aF1.0
aF0.0
aF69223.0
aF1936.0
aI00
aF441096.0
aF0.0
aF211788.0
aF900.0
aF1320.0
aF2081796.0
aF441096.0
aF0.030303030303030304
aF0.037037037037037035
aF0.6818181818181818
aF0.0
aF10259.0
aF0.0
aF0.0
aS'joe.hirko@enron.com'
p266
aF30766064.0
aF77978.0
aF0.0
aF0.0
aF0.0
aF0.0
aF0.0
aF2856.0
aI01
aF0.0
aF0.0
aF0.0
aF0.0
aF0.0
aF91093.0
aF30766064.0
aF0.0
aF0.0
aF0.0
aF0.0
aF3131860.0
aF0.0
aF0.0
aS'stanley.horton@enron.com'
p267
aF5210569.0
aF0.0
aF1073.0
aF44.0
aF15.0
aF0.0
aF0.0
aF0.0
aI00
aF2046079.0
aF0.0
aF0.0
aF1074.0
aF2350.0
aF3131860.0
aF7256648.0
aF0.01872340425531915
aF0.013979496738117428
aF0.4570212765957447
aF0.0
aF0.0
aF0.0
aF0.0
aS'james.hughes@enron.com'
p268
aF754966.0
aF0.0
aF34.0
aF35.0
aF5.0
aF0.0
aF0.0
aF0.0
aI00
aF363428.0
aF0.0
aF0.0
aF589.0
aF719.0
aF0.0
aF1118394.0
aF0.048678720445062586
aF0.14705882352941177
aF0.8191933240611962
aF0.0
aF2964506.0
aF0.0
aF0.0
aS'gene.humphrey@enron.com'
p269
aF2282768.0
aF4994.0
aF17.0
aF10.0
aF17.0
aF0.0
aF0.0
aF0.0
aI00
aF0.0
aF0.0
aF130724.0
aF119.0
aF128.0
aF3100224.0
aF2282768.0
aF0.078125
aF1.0
aF0.9296875
aF0.0
aF0.0
aF0.0
aF0.0
aS'larry.izzo@enron.com'
p270
aF2165172.0
aF28093.0
aF19.0
aF28.0
aF5.0
aF0.0
aF312500.0
aF1553729.0
aI00
aF3654808.0
aF0.0
aF85274.0
aF437.0
aF496.0
aF1979596.0
aF5819980.0
aF0.056451612903225805
aF0.2631578947368421
aF0.8810483870967742
aF250000.0
aF0.0
aF0.0
aF0.0
aS'charlene.jackson@enron.com'
p271
aF185063.0
aF10181.0
aF56.0
aF25.0
aF19.0
aF0.0
aF0.0
aF2435.0
aI00
aF540672.0
aF0.0
aF288558.0
aF117.0
aF258.0
aF551174.0
aF725735.0
aF0.09689922480620156
aF0.3392857142857143
aF0.45348837209302323
aF0.0
aF0.0
aF-25000.0
aF108750.0
aI0
aF431750.0
aF0.0
aF0.0
aF0.0
aF0.0
aF0.0
aF0.0
aF0.0
aI00
aF44093.0
aF-44093.0
aF0.0
aF0.0
aF0.0
aF83750.0
aF431750.0
aF0.0
aF0.0
aF0.0
aF400000.0
aF0.0
aF0.0
aF0.0
aS'vince.kaminski@enron.com'
p272
aF850010.0
aF83585.0
aF14368.0
aF41.0
aF171.0
aF0.0
aF323466.0
aF4669.0
aI00
aF126027.0
aF0.0
aF275101.0
aF583.0
aF4607.0
aF1086821.0
aF976037.0
aF0.008899500759713479
aF0.011901447661469933
aF0.1265465595832429
aF1000000.0
aF0.0
aF0.0
aF0.0
aS'steven.kean@enron.com'
p273
aF2022048.0
aF41953.0
aF6759.0
aF140.0
aF387.0
aF0.0
aF300000.0
aF1231.0
aI00
aF4131594.0
aF0.0
aF404338.0
aF3639.0
aF12754.0
aF1747522.0
aF6153642.0
aF0.010976948408342482
aF0.05725699067909454
aF0.2853222518425592
aF0.0
aF0.0
aF-51042.0
aF0.0
aS'joe.kishkill@enron.com'
p274
aF0.0
aF116335.0
aF0.0
aF0.0
aF0.0
aF0.0
aF0.0
aF465357.0
aI00
aF1034346.0
aF0.0
aF174246.0
aF0.0
aF0.0
aF704896.0
aF1034346.0
aF0.0
aF0.0
aF0.0
aF3100000.0
aF0.0
aF0.0
aF0.0
aS'louise.kitchen@enron.com'
p275
aF81042.0
aF5774.0
aF1728.0
aF251.0
aF194.0
aF0.0
aF0.0
aF93925.0
aI00
aF466101.0
aF0.0
aF271442.0
aF3669.0
aF8305.0
aF3471141.0
aF547143.0
aF0.030222757375075255
aF0.11226851851851852
aF0.441782059000602
aF700000.0
aF0.0
aF0.0
aF0.0
aS'mark.koenig@enron.com'
p276
aF671737.0
aF127017.0
aF61.0
aF53.0
aF15.0
aF0.0
aF300000.0
aF150458.0
aI01
aF1248318.0
aF0.0
aF309946.0
aF2271.0
aF2374.0
aF1587421.0
aF1920055.0
aF0.02232518955349621
aF0.2459016393442623
aF0.9566133108677338
aF800000.0
aF0.0
aF0.0
aF0.0
aS'michael.kopper@enron.com'
p277
aF0.0
aF118134.0
aF0.0
aF0.0
aF0.0
aF0.0
aF602671.0
aF907502.0
aI01
aF985032.0
aF0.0
aF224305.0
aF0.0
aF0.0
aF2652612.0
aF985032.0
aF0.0
aF0.0
aF0.0
aF8000000.0
aF0.0
aF0.0
aF0.0
aS'john.lavorato@enron.com'
p278
aF4158995.0
aF49537.0
aF2585.0
aF528.0
aF411.0
aF0.0
aF2035380.0
aF1552.0
aI00
aF1008149.0
aF0.0
aF339288.0
aF3962.0
aF7259.0
aF10425757.0
aF5167144.0
aF0.07273729163796666
aF0.15899419729206962
aF0.5458052073288332
aF7000000.0
aF202911.0
aF-300000.0
aF0.0
aS'kenneth.lay@enron.com'
p279
aF34348384.0
aF99832.0
aF36.0
aF123.0
aF16.0
aF81525000.0
aF3600000.0
aF10359729.0
aI01
aF14761694.0
aF0.0
aF1072321.0
aF2411.0
aF4273.0
aF103559793.0
aF49110078.0
aF0.028785396676807865
aF0.4444444444444444
aF0.5642405803884858
aF1000000.0
aF0.0
aF0.0
aF0.0
aS'dan.leff@enron.com'
p280
aF0.0
aF0.0
aF63.0
aF67.0
aF14.0
aF0.0
aF1387399.0
aF3083.0
aI00
aF360528.0
aF0.0
aF273746.0
aF2672.0
aF2822.0
aF2664228.0
aF360528.0
aF0.02374202693125443
aF0.2222222222222222
aF0.9468462083628633
aF0.0
aF0.0
aF-25000.0
aF112492.0
aI0
aF412878.0
aF0.0
aF0.0
aF0.0
aF0.0
aF0.0
aF0.0
aF0.0
aI00
aF0.0
aF0.0
aF0.0
aF0.0
aF0.0
aF87492.0
aF412878.0
aF0.0
aF0.0
aF0.0
aF0.0
aF0.0
aF0.0
aF0.0
aS'richard.lewis@enron.com'
p281
aF850477.0
aF0.0
aF26.0
aF10.0
aF0.0
aF0.0
aF0.0
aF0.0
aI00
aF0.0
aF0.0
aF0.0
aF739.0
aF952.0
aF0.0
aF850477.0
aF0.01050420168067227
aF0.0
aF0.7762605042016807
aF200000.0
aF204075.0
aF0.0
aF0.0
aS'tod.lindholm@enron.com'
p282
aF2549361.0
aF57727.0
aF0.0
aF0.0
aF0.0
aF0.0
aF175000.0
aF2630.0
aI00
aF514847.0
aF0.0
aF236457.0
aF0.0
aF0.0
aF875889.0
aF3064208.0
aF0.0
aF0.0
aF0.0
aF0.0
aF0.0
aF0.0
aF0.0
aI0
aF372205.0
aF0.0
aF0.0
aF0.0
aF0.0
aF0.0
aF0.0
aF0.0
aI00
aF153686.0
aF-153686.0
aF0.0
aF0.0
aF0.0
aF0.0
aF372205.0
aF0.0
aF0.0
aF0.0
aF0.0
aF85430.0
aF0.0
aF0.0
aS'a..martin@enron.com'
p283
aF2070306.0
aF8211.0
aF230.0
aF8.0
aF0.0
aF0.0
aF5145434.0
aF2818454.0
aI00
aF0.0
aF0.0
aF349487.0
aF477.0
aF1522.0
aF8407016.0
aF2070306.0
aF0.005256241787122208
aF0.0
aF0.31340341655716164
aF0.0
aF0.0
aF0.0
aF0.0
aS'danny.mccarty@enron.com'
p284
aF664375.0
aF0.0
aF215.0
aF25.0
aF2.0
aF0.0
aF0.0
aF0.0
aI00
aF94556.0
aF0.0
aF0.0
aF508.0
aF1433.0
aF0.0
aF758931.0
aF0.017445917655268667
aF0.009302325581395349
aF0.35450104675505933
aF900000.0
aF0.0
aF-125000.0
aF0.0
aS'george.mcclellan@enron.com'
p285
aF506765.0
aF228763.0
aF49.0
aF52.0
aF0.0
aF0.0
aF0.0
aF51587.0
aI00
aF441096.0
aF0.0
aF263413.0
aF1469.0
aF1744.0
aF1318763.0
aF947861.0
aF0.02981651376146789
aF0.0
aF0.8423165137614679
aF1100000.0
aF0.0
aF0.0
aF0.0
aS'mike.mcconnell@enron.com'
p286
aF1623010.0
aF81364.0
aF2742.0
aF92.0
aF194.0
aF0.0
aF554422.0
aF540.0
aI00
aF1478269.0
aF0.0
aF365038.0
aF2189.0
aF3329.0
aF2101364.0
aF3101279.0
aF0.02763592670471613
aF0.07075127644055434
aF0.657554821267648
aF0.0
aF0.0
aF0.0
aF0.0
aS'rebecca.mcdonald@enron.com'
p287
aF757301.0
aF0.0
aF13.0
aF54.0
aF1.0
aF0.0
aF0.0
aF0.0
aI00
aF934065.0
aF0.0
aF0.0
aF720.0
aF894.0
aF0.0
aF1691366.0
aF0.06040268456375839
aF0.07692307692307693
aF0.8053691275167785
aF2600000.0
aF0.0
aF0.0
aF0.0
aS'jeffrey.mcmahon@enron.com'
p288
aF1104054.0
aF137108.0
aF48.0
aF58.0
aF26.0
aF0.0
aF694862.0
aF297353.0
aI00
aF558801.0
aF0.0
aF370448.0
aF2228.0
aF2355.0
aF4099771.0
aF1662855.0
aF0.024628450106157114
aF0.5416666666666666
aF0.9460721868365181
aF0.0
aF0.0
aF-103750.0
aF103750.0
aI0
aF0.0
aF148.0
aF0.0
aF0.0
aF0.0
aF0.0
aF0.0
aF0.0
aI00
aF0.0
aF0.0
aF0.0
aF0.0
aF0.0
aF148.0
aF0.0
aF0.0
aF0.0
aF0.0
aF600000.0
aF0.0
aF0.0
aF0.0
aS'mark.metts@enron.com'
p289
aF0.0
aF94299.0
aF29.0
aF38.0
aF1.0
aF0.0
aF0.0
aF1740.0
aI00
aF585062.0
aF0.0
aF365788.0
aF702.0
aF807.0
aF1061827.0
aF585062.0
aF0.04708798017348203
aF0.034482758620689655
aF0.8698884758364313
aF0.0
aF0.0
aF-38346.0
aF38346.0
aI0
aF0.0
aF2151.0
aF0.0
aF0.0
aF0.0
aF0.0
aF0.0
aF0.0
aI00
aF0.0
aF0.0
aF0.0
aF0.0
aF0.0
aF2151.0
aF0.0
aF0.0
aF0.0
aF0.0
aF0.0
aF1848227.0
aF0.0
aF0.0
aS'rockford.meyer@enron.com'
p290
aF493489.0
aF0.0
aF28.0
aF0.0
aF0.0
aF0.0
aF0.0
aF0.0
aI00
aF462384.0
aF0.0
aF0.0
aF22.0
aF232.0
aF1848227.0
aF955873.0
aF0.0
aF0.0
aF0.09482758620689655
aF0.0
aF0.0
aF0.0
aF0.0
aS'michael.moran@enron.com'
p291
aF59539.0
aF0.0
aF19.0
aF0.0
aF0.0
aF0.0
aF0.0
aF0.0
aI00
aF161602.0
aF0.0
aF0.0
aF127.0
aF672.0
aF0.0
aF221141.0
aF0.0
aF0.0
aF0.18898809523809523
aF325000.0
aF0.0
aF0.0
aF0.0
aS'kristina.mordaunt@enron.com'
p292
aF0.0
aF35018.0
aF0.0
aF0.0
aF0.0
aF0.0
aF0.0
aF1411.0
aI00
aF208510.0
aF0.0
aF267093.0
aF0.0
aF0.0
aF628522.0
aF208510.0
aF0.0
aF0.0
aF0.0
aF1100000.0
aF842924.0
aF-719000.0
aF0.0
aS's..muller@enron.com'
p293
aF1056320.0
aF0.0
aF16.0
aF12.0
aF0.0
aF0.0
aF1725545.0
aF947.0
aI00
aF360528.0
aF0.0
aF251654.0
aF114.0
aF136.0
aF3202070.0
aF1416848.0
aF0.08823529411764706
aF0.0
aF0.8382352941176471
aF400000.0
aF0.0
aF0.0
aF0.0
aS'julia.murray@enron.com'
p294
aF400478.0
aF57580.0
aF45.0
aF11.0
aF2.0
aF0.0
aF125000.0
aF330.0
aI00
aF196983.0
aF0.0
aF229284.0
aF395.0
aF2192.0
aF812194.0
aF597461.0
aF0.005018248175182482
aF0.044444444444444446
aF0.1802007299270073
aF0.0
aF774401.0
aF0.0
aF0.0
aI0
aF0.0
aF0.0
aF0.0
aF0.0
aF0.0
aF0.0
aF0.0
aF0.0
aI00
aF463261.0
aF-94556.0
aF0.0
aF0.0
aF0.0
aF774401.0
aF368705.0
aF0.0
aF0.0
aF0.0
aF750000.0
aF77716.0
aF0.0
aF0.0
aS'cindy.olson@enron.com'
p295
aF1637034.0
aF63791.0
aF52.0
aF20.0
aF15.0
aF0.0
aF100000.0
aF972.0
aI00
aF969729.0
aF0.0
aF329078.0
aF856.0
aF1184.0
aF1321557.0
aF2606763.0
aF0.016891891891891893
aF0.28846153846153844
aF0.722972972972973
aF0.0
aF0.0
aF0.0
aF0.0
aS'jere.overdyke@enron.com'
p296
aF5266578.0
aF18834.0
aF0.0
aF0.0
aF0.0
aF0.0
aF135836.0
aF176.0
aI00
aF2041016.0
aF0.0
aF94941.0
aF0.0
aF0.0
aF249787.0
aF7307594.0
aF0.0
aF0.0
aF0.0
aF1000000.0
aF0.0
aF0.0
aF0.0
aS'lou.pai@enron.com'
p297
aF15364167.0
aF32047.0
aF0.0
aF0.0
aF0.0
aF0.0
aF0.0
aF1829457.0
aI00
aF8453763.0
aF0.0
aF261879.0
aF0.0
aF0.0
aF3123383.0
aF23817930.0
aF0.0
aF0.0
aF0.0
aF0.0
aF0.0
aF-101250.0
aF101250.0
aI0
aF0.0
aF27942.0
aF0.0
aF0.0
aF0.0
aF0.0
aF0.0
aF0.0
aI00
aF0.0
aF0.0
aF0.0
aF0.0
aF0.0
aF27942.0
aF0.0
aF0.0
aF0.0
aF0.0
aF300000.0
aF0.0
aF0.0
aF0.0
aS'mark.pickering@enron.com'
p298
aF28798.0
aF31653.0
aF67.0
aF7.0
aF0.0
aF400000.0
aF0.0
aF0.0
aI00
aF0.0
aF0.0
aF655037.0
aF728.0
aF898.0
aF1386690.0
aF28798.0
aF0.0077951002227171495
aF0.0
aF0.8106904231625836
aF400000.0
aF1130036.0
aF-33333.0
aF0.0
aS'greg.piper@enron.com'
p299
aF880290.0
aF43057.0
aF222.0
aF61.0
aF48.0
aF0.0
aF0.0
aF778.0
aI00
aF409554.0
aF-409554.0
aF197091.0
aF742.0
aF1238.0
aF1737629.0
aF880290.0
aF0.049273021001615507
aF0.21621621621621623
aF0.5993537964458805
aF0.0
aF0.0
aF0.0
aF0.0
aS'jim.piro@enron.com'
p300
aF0.0
aF0.0
aF16.0
aF0.0
aF1.0
aF0.0
aF0.0
aF0.0
aI00
aF47304.0
aF0.0
aF0.0
aF3.0
aF58.0
aF0.0
aF47304.0
aF0.0
aF0.0625
aF0.05172413793103448
aF0.0
aF0.0
aF-17500.0
aF17500.0
aS'ken.powers@enron.com'
p301
aF0.0
aF0.0
aF26.0
aF0.0
aF0.0
aF0.0
aF0.0
aF0.0
aI00
aF0.0
aF0.0
aF0.0
aF12.0
aF653.0
aF0.0
aF0.0
aF0.0
aF0.0
aF0.018376722817764167
aF0.0
aF564348.0
aF0.0
aF0.0
aS'james.prentice@enron.com'
p302
aF886231.0
aF0.0
aF0.0
aF0.0
aF0.0
aF0.0
aF0.0
aF0.0
aI00
aF208809.0
aF0.0
aF0.0
aF0.0
aF0.0
aF564348.0
aF1095040.0
aF0.0
aF0.0
aF0.0
aF0.0
aF0.0
aF0.0
aF0.0
aS'brian.redmond@enron.com'
p303
aF7509039.0
aF14689.0
aF221.0
aF204.0
aF49.0
aF0.0
aF0.0
aF0.0
aI00
aF381285.0
aF0.0
aF96840.0
aF1063.0
aF1671.0
aF111529.0
aF7890324.0
aF0.12208258527827648
aF0.22171945701357465
aF0.6361460203470976
aF100000.0
aF51365.0
aF-200000.0
aF0.0
aI0
aF4160672.0
aF8409.0
aF0.0
aF0.0
aF0.0
aF0.0
aF156250.0
aF202052.0
aI00
aF201483.0
aF-140264.0
aF76399.0
aF0.0
aF0.0
aF394475.0
aF4221891.0
aF0.0
aF0.0
aF0.0
aF1750000.0
aF0.0
aF-3504386.0
aF0.0
aS'ken.rice@enron.com'
p304
aF19794175.0
aF46950.0
aF18.0
aF42.0
aF4.0
aF0.0
aF1617011.0
aF174839.0
aI01
aF2748364.0
aF0.0
aF420636.0
aF864.0
aF905.0
aF505050.0
aF22542539.0
aF0.04640883977900553
aF0.2222222222222222
aF0.9546961325966851
aF700000.0
aF214678.0
aF-100000.0
aF0.0
aS'paula.rieker@enron.com'
p305
aF1635238.0
aF33271.0
aF82.0
aF35.0
aF48.0
aF0.0
aF0.0
aF1950.0
aI01
aF283649.0
aF0.0
aF249201.0
aF1258.0
aF1328.0
aF1099100.0
aF1918887.0
aF0.02635542168674699
aF0.5853658536585366
aF0.947289156626506
aF0.0
aF0.0
aF-121284.0
aF125034.0
aI0
aF0.0
aF0.0
aF0.0
aF0.0
aF0.0
aF0.0
aF0.0
aF0.0
aI00
aF0.0
aF0.0
aF0.0
aF0.0
aF0.0
aF3750.0
aF0.0
aF0.0
aF0.0
aF0.0
aF0.0
aF0.0
aF0.0
aF0.0
aS'matthew.scrimshaw@enron.com'
p306
aF759557.0
aF0.0
aF0.0
aF0.0
aF0.0
aF0.0
aF0.0
aF0.0
aI00
aF0.0
aF0.0
aF0.0
aF0.0
aF0.0
aF0.0
aF759557.0
aF0.0
aF0.0
aF0.0
aF2000000.0
aF0.0
aF0.0
aF0.0
aS'jeffrey.shankman@enron.com'
p307
aF1441898.0
aF178979.0
aF2681.0
aF94.0
aF83.0
aF0.0
aF554422.0
aF1191.0
aI00
aF630137.0
aF0.0
aF304110.0
aF1730.0
aF3221.0
aF3038702.0
aF2072035.0
aF0.029183483390251473
aF0.030958597538232
aF0.5371002794163303
aF650000.0
aF0.0
aF0.0
aF0.0
aS'richard.shapiro@enron.com'
p308
aF607837.0
aF137767.0
aF1215.0
aF74.0
aF65.0
aF0.0
aF0.0
aF705.0
aI00
aF379164.0
aF0.0
aF269076.0
aF4527.0
aF15149.0
aF1057548.0
aF987001.0
aF0.0048848108786058485
aF0.053497942386831275
aF0.29883160604660375
aF600000.0
aF187469.0
aF0.0
aF0.0
aS'vicki.sharp@enron.com'
p309
aF281073.0
aF116337.0
aF136.0
aF24.0
aF6.0
aF0.0
aF422158.0
aF2401.0
aI00
aF213063.0
aF0.0
aF248146.0
aF2477.0
aF3136.0
aF1576511.0
aF494136.0
aF0.007653061224489796
aF0.04411764705882353
aF0.7898596938775511
aF200000.0
aF0.0
aF-4167.0
aF0.0
aS'rex.shelby@enron.com'
p310
aF1624396.0
aF22884.0
aF39.0
aF13.0
aF14.0
aF0.0
aF0.0
aF1573324.0
aI01
aF869220.0
aF0.0
aF211844.0
aF91.0
aF225.0
aF2003885.0
aF2493616.0
aF0.057777777777777775
aF0.358974358974359
aF0.40444444444444444
aF0.0
aF0.0
aF0.0
aF0.0
aS'jeffrey.sherrick@enron.com'
p311
aF1426469.0
aF0.0
aF25.0
aF39.0
aF18.0
aF0.0
aF0.0
aF0.0
aI00
aF405999.0
aF0.0
aF0.0
aF583.0
aF613.0
aF0.0
aF1832468.0
aF0.0636215334420881
aF0.72
aF0.9510603588907015
aF1500000.0
aF0.0
aF0.0
aF0.0
aS'john.sherriff@enron.com'
p312
aF1835558.0
aF0.0
aF92.0
aF28.0
aF23.0
aF0.0
aF554422.0
aF1852186.0
aI00
aF1293424.0
aF0.0
aF428780.0
aF2103.0
aF3187.0
aF4335388.0
aF3128982.0
aF0.008785691873235017
aF0.25
aF0.6598682146219015
aF5600000.0
aF0.0
aF0.0
aF0.0
aS'jeff.skilling@enron.com'
p313
aF19250000.0
aF29336.0
aF108.0
aF88.0
aF30.0
aF0.0
aF1920000.0
aF22122.0
aI01
aF6843672.0
aF0.0
aF1111258.0
aF2042.0
aF3627.0
aF8682716.0
aF26093672.0
aF0.0242624758753791
aF0.2777777777777778
aF0.5629997242900469
aF500000.0
aF0.0
aF0.0
aF0.0
aS'frank.stabler@enron.com'
p314
aF0.0
aF16514.0
aF0.0
aF0.0
aF0.0
aF0.0
aF0.0
aF356071.0
aI00
aF511734.0
aF0.0
aF239502.0
aF0.0
aF0.0
aF1112087.0
aF511734.0
aF0.0
aF0.0
aF0.0
aF100000.0
aF181993.0
aF0.0
aF0.0
aI0
aF1362375.0
aF0.0
aF0.0
aF0.0
aF0.0
aF0.0
aF554422.0
aF162.0
aI00
aF0.0
aF0.0
aF162779.0
aF0.0
aF0.0
aF999356.0
aF1362375.0
aF0.0
aF0.0
aF0.0
aF700000.0
aF0.0
aF0.0
aF0.0
aS'marty.sunde@enron.com'
p315
aF0.0
aF0.0
aF38.0
aF37.0
aF13.0
aF0.0
aF476451.0
aF111122.0
aI00
aF698920.0
aF0.0
aF257486.0
aF2565.0
aF2647.0
aF1545059.0
aF698920.0
aF0.013978088401964487
aF0.34210526315789475
aF0.9690215338118625
aF600000.0
aF227449.0
aF0.0
aF0.0
aS'mitchell.taylor@enron.com'
p316
aF3181250.0
aF0.0
aF29.0
aF0.0
aF0.0
aF0.0
aF0.0
aF0.0
aI00
aF563798.0
aF0.0
aF265214.0
aF300.0
aF533.0
aF1092663.0
aF3745048.0
aF0.0
aF0.0
aF0.5628517823639775
aF0.0
aF16586.0
aF0.0
aF0.0
aS'terence.thorn@enron.com'
p317
aF4452476.0
aF46145.0
aF41.0
aF0.0
aF0.0
aF0.0
aF200000.0
aF426629.0
aI00
aF365320.0
aF0.0
aF222093.0
aF73.0
aF266.0
aF911453.0
aF4817796.0
aF0.0
aF0.0
aF0.2744360902255639
aF300000.0
aF0.0
aF-575000.0
aF0.0
aS'elizabeth.tilney@enron.com'
p318
aF591250.0
aF0.0
aF19.0
aF10.0
aF11.0
aF0.0
aF275000.0
aF152055.0
aI00
aF576792.0
aF0.0
aF247338.0
aF379.0
aF460.0
aF399393.0
aF1168042.0
aF0.021739130434782608
aF0.5789473684210527
aF0.8239130434782609
aF788750.0
aF0.0
aF0.0
aF0.0
aS'adam.umanoff@enron.com'
p319
aF0.0
aF53122.0
aF18.0
aF12.0
aF0.0
aF0.0
aF0.0
aF0.0
aI00
aF0.0
aF0.0
aF288589.0
aF41.0
aF111.0
aF1130461.0
aF0.0
aF0.10810810810810811
aF0.0
aF0.36936936936936937
aF0.0
aF0.0
aF-36666.0
aF36666.0
aI0
aF0.0
aF228656.0
aF0.0
aF0.0
aF0.0
aF0.0
aF0.0
aF0.0
aI00
aF0.0
aF0.0
aF0.0
aF0.0
aF0.0
aF228656.0
aF0.0
aF0.0
aF0.0
aF0.0
aF0.0
aF0.0
aF0.0
aF109298.0
aI0
aF0.0
aF103773.0
aF0.0
aF0.0
aF0.0
aF0.0
aF0.0
aF0.0
aI00
aF0.0
aF0.0
aF0.0
aF0.0
aF0.0
aF213071.0
aF0.0
aF0.0
aF0.0
aF0.0
aF850000.0
aF0.0
aF0.0
aF0.0
aS'rob.walls@enron.com'
p320
aF4346544.0
aF50936.0
aF146.0
aF17.0
aF0.0
aF0.0
aF540751.0
aF2.0
aI00
aF1552453.0
aF0.0
aF357091.0
aF215.0
aF671.0
aF1798780.0
aF5898997.0
aF0.02533532041728763
aF0.0
aF0.3204172876304024
aF0.0
aF53625.0
aF0.0
aF0.0
aI0
aF1030329.0
aF33785.0
aF0.0
aF0.0
aF0.0
aF0.0
aF0.0
aF0.0
aI00
aF0.0
aF0.0
aF0.0
aF0.0
aF0.0
aF87410.0
aF1030329.0
aF0.0
aF0.0
aF0.0
aF325000.0
aF831299.0
aF-583325.0
aF0.0
aS'george.wasaff@enron.com'
p321
aF1668260.0
aF0.0
aF30.0
aF22.0
aF7.0
aF0.0
aF200000.0
aF1425.0
aI00
aF388167.0
aF0.0
aF259996.0
aF337.0
aF400.0
aF1034395.0
aF2056427.0
aF0.055
aF0.23333333333333334
aF0.8425
aF0.0
aF0.0
aF-10800.0
aF0.0
aS'dick.westfahl@enron.com'
p322
aF0.0
aF51870.0
aF0.0
aF0.0
aF0.0
aF0.0
aF256191.0
aF401130.0
aI00
aF384930.0
aF0.0
aF63744.0
aF0.0
aF0.0
aF762135.0
aF384930.0
aF0.0
aF0.0
aF0.0
aF3000000.0
aF0.0
aF0.0
aF0.0
aS'greg.whalley@enron.com'
p323
aF3282960.0
aF57838.0
aF556.0
aF186.0
aF24.0
aF0.0
aF808346.0
aF301026.0
aI00
aF2796177.0
aF0.0
aF510364.0
aF3920.0
aF6019.0
aF4677574.0
aF6079137.0
aF0.03090214321315833
aF0.04316546762589928
aF0.6512709752450573
aF450000.0
aF0.0
aF0.0
aF0.0
aS'thomas.white@enron.com'
p324
aF1297049.0
aF81353.0
aF0.0
aF0.0
aF0.0
aF0.0
aF0.0
aF1085463.0
aI00
aF13847074.0
aF0.0
aF317543.0
aF0.0
aF0.0
aF1934359.0
aF15144123.0
aF0.0
aF0.0
aF0.0
aF0.0
aF0.0
aF-25000.0
aF108579.0
aI0
aF0.0
aF1413.0
aF0.0
aF0.0
aF0.0
aF0.0
aF0.0
aF0.0
aI00
aF0.0
aF0.0
aF0.0
aF0.0
aF0.0
aF84992.0
aF0.0
aF0.0
aF0.0
aF0.0
aF0.0
aF0.0
aF0.0
aF0.0
aS'john.wodraska@enron.com'
p325
aF0.0
aF0.0
aF0.0
aF0.0
aF0.0
aF0.0
aF0.0
aF189583.0
aI00
aF0.0
aF0.0
aF0.0
aF0.0
aF0.0
aF189583.0
aF0.0
aF0.0
aF0.0
aF0.0
aF0.0
aF0.0
aF0.0
aF0.0
aS'scott.yeager@enron.com'
p326
aF8308552.0
aF53947.0
aF0.0
aF0.0
aF0.0
aF0.0
aF0.0
aF147950.0
aI01
aF3576206.0
aF0.0
aF158403.0
aF0.0
aF0.0
aF360300.0
aF11884758.0
aF0.0
aF0.0
aF0.0
aF0.0
aF0.0
aF0.0
aF0.0
aI0
aF192758.0
aF55097.0
aF0.0
aF0.0
aF0.0
aF0.0
aF0.0
aF0.0
aI00
aF0.0
aF0.0
aF0.0
aF0.0
aF0.0
aF55097.0
aF192758.0
aF0.0
aF0.0
aF0.0
atp327
ba(lp328
g15
(g16
(dp329
g18
g19
(g20
(I0
tp330
g22
tp331
Rp332
(I1
(I140
tp333
g29
I00
(lp334
g33
ag34
ag35
ag36
ag37
ag38
ag39
ag40
ag41
ag42
ag43
ag44
ag45
ag46
ag47
ag48
ag49
ag50
ag51
ag52
ag53
ag54
ag55
ag56
ag57
ag58
ag59
ag60
ag61
ag62
ag63
ag64
ag65
ag66
ag67
ag68
ag69
ag70
ag71
ag72
ag73
ag74
ag75
ag76
ag77
ag78
ag79
ag80
ag81
ag82
ag83
ag84
ag85
ag86
ag87
ag88
ag89
ag90
ag91
ag92
ag93
ag94
ag95
ag96
ag97
ag98
ag99
ag100
ag101
ag102
ag103
ag104
ag105
ag106
ag107
ag108
ag109
ag110
ag111
ag112
ag113
ag114
ag115
ag116
ag117
ag118
ag119
ag120
ag121
ag122
ag123
ag124
ag125
ag126
ag127
ag128
ag129
ag130
ag131
ag132
ag133
ag134
ag135
ag136
ag137
ag138
ag139
ag140
ag141
ag142
ag143
ag144
ag145
ag146
ag147
ag148
ag149
ag150
ag151
ag152
ag153
ag154
ag155
ag156
ag157
ag158
ag159
ag160
ag161
ag162
ag163
ag164
ag165
ag166
ag167
ag168
ag169
ag170
ag171
ag172
atp335
bsg174
Nstp336
Rp337
a(dp338
S'0.14.1'
p339
(dp340
S'axes'
p341
g14
sS'blocks'
p342
(lp343
(dp344
S'mgr_locs'
p345
c__builtin__
slice
p346
(I0
I140
I1
tp347
Rp348
sS'values'
p349
g213
sasstp350
bsb.