(lp0
S'poi'
p1
aS'salary'
p2
aS'deferral_payments'
p3
aS'total_payments'
p4
aS'bonus'
p5
aS'restricted_stock_deferred'
p6
aS'deferred_income'
p7
aS'total_stock_value'
p8
aS'expenses'
p9
aS'long_term_incentive'
p10
aS'director_fees'
p11
aS'from_poi_to_this_person'
p12
aS'from_messages'
p13
aS'from_this_person_to_poi'
p14
aS'shared_receipt_with_poi'
p15
a.